target datalayout = "e-m:e-p270:32:32-p271:32:32-p272:64:64-i64:64-i128:128-f80:128-n8:16:32:64-S128"
target triple = "x86_64-pc-linux-gnu"

%"class.cvc5::internal::NodeTemplate" = type { ptr }
%"struct.std::_Vector_base.134" = type { %"struct.std::_Vector_base<cvc5::internal::NodeTemplate<true>, std::allocator<cvc5::internal::NodeTemplate<true>>>::_Vector_impl" }
%"struct.std::_Vector_base<cvc5::internal::NodeTemplate<true>, std::allocator<cvc5::internal::NodeTemplate<true>>>::_Vector_impl" = type { %"struct.std::_Vector_base<cvc5::internal::NodeTemplate<true>, std::allocator<cvc5::internal::NodeTemplate<true>>>::_Vector_impl_data" }
%"struct.std::_Vector_base<cvc5::internal::NodeTemplate<true>, std::allocator<cvc5::internal::NodeTemplate<true>>>::_Vector_impl_data" = type { ptr, ptr, ptr }
%"class.cvc5::internal::NodeTemplate.142" = type { ptr }

; Function Attrs: mustprogress nounwind uwtable
define linkonce_odr hidden void @_ZN4cvc58internal12NodeTemplateILb0EED2Ev(ptr noundef nonnull align 8 dereferenceable(8) %0) unnamed_addr #5 comdat align 2 {
  %2 = alloca ptr, align 8
  store ptr %0, ptr %2, align 8, !tbaa !163
  ret void
}

; Function Attrs: mustprogress nounwind uwtable
define linkonce_odr hidden void @_ZN4cvc58internal12NodeTemplateILb0EEC2ERKNS1_ILb1EEE(ptr noundef nonnull align 8 dereferenceable(8) %0, ptr noundef nonnull align 8 dereferenceable(8) %1) unnamed_addr #5 comdat align 2 {
  %3 = alloca ptr, align 8
  %4 = alloca ptr, align 8
  store ptr %0, ptr %3, align 8, !tbaa !163
  store ptr %1, ptr %4, align 8, !tbaa !78
  %5 = load ptr, ptr %3, align 8
  %6 = load ptr, ptr %4, align 8, !tbaa !78
  %7 = getelementptr inbounds nuw %"class.cvc5::internal::NodeTemplate", ptr %6, i32 0, i32 0
  %8 = load ptr, ptr %7, align 8, !tbaa !80
  %9 = getelementptr inbounds nuw %"class.cvc5::internal::NodeTemplate.142", ptr %5, i32 0, i32 0
  store ptr %8, ptr %9, align 8, !tbaa !165
  ret void
}

; Function Attrs: mustprogress nounwind uwtable
define linkonce_odr hidden noundef nonnull align 8 dereferenceable(8) ptr @_ZNKSt6vectorIN4cvc58internal12NodeTemplateILb1EEESaIS3_EEixEm(ptr noundef nonnull align 8 dereferenceable(24) %0, i64 noundef %1) #5 comdat align 2 {
  %3 = alloca ptr, align 8
  %4 = alloca i64, align 8
  store ptr %0, ptr %3, align 8, !tbaa !109
  store i64 %1, ptr %4, align 8, !tbaa !111
  %5 = load ptr, ptr %3, align 8
  %6 = getelementptr inbounds nuw %"struct.std::_Vector_base.134", ptr %5, i32 0, i32 0
  %7 = getelementptr inbounds nuw %"struct.std::_Vector_base<cvc5::internal::NodeTemplate<true>, std::allocator<cvc5::internal::NodeTemplate<true>>>::_Vector_impl_data", ptr %6, i32 0, i32 0
  %8 = load ptr, ptr %7, align 8, !tbaa !151
  %9 = load i64, ptr %4, align 8, !tbaa !111
  %10 = getelementptr inbounds nuw %"class.cvc5::internal::NodeTemplate", ptr %8, i64 %9
  ret ptr %10
}

; Function Attrs: mustprogress uwtable
define hidden noundef i32 @_ZN4cvc58internal16ProofNodeToSExpr17getArgumentFormatEPKNS0_9ProofNodeEm(ptr noundef nonnull align 8 dereferenceable(456) %0, ptr noundef %1, i64 noundef %2) #4 align 2 personality ptr @__gxx_personality_v0 {
  %4 = alloca i32, align 4
  %5 = alloca ptr, align 8
  %6 = alloca ptr, align 8
  %7 = alloca i64, align 8
  %8 = alloca i32, align 4
  %9 = alloca i32, align 4
  %10 = alloca i32, align 4
  %11 = alloca %"class.cvc5::internal::NodeTemplate.142", align 8
  %12 = alloca ptr, align 8
  %13 = alloca i32, align 4
  store ptr %0, ptr %5, align 8, !tbaa !3
  store ptr %1, ptr %6, align 8, !tbaa !95
  store i64 %2, ptr %7, align 8, !tbaa !111
  call void @llvm.lifetime.start.p0(i64 4, ptr %8) #3
  %14 = load ptr, ptr %6, align 8, !tbaa !95
  %15 = call noundef i32 @_ZNK4cvc58internal9ProofNode7getRuleEv(ptr noundef nonnull align 8 dereferenceable(65) %14)
  store i32 %15, ptr %8, align 4, !tbaa !105
  %16 = load i32, ptr %8, align 4, !tbaa !105
  switch i32 %16, label %69 [
    i32 2, label %17
    i32 3, label %17
    i32 7, label %17
    i32 8, label %17
    i32 10, label %17
    i32 9, label %22
    i32 16, label %23
    i32 12, label %33
    i32 13, label %33
    i32 95, label %38
    i32 15, label %43
  ]

17:                                               ; preds = %3, %3, %3, %3, %3
  %18 = load i64, ptr %7, align 8, !tbaa !111
  %19 = icmp ugt i64 %18, 0
  br i1 %19, label %20, label %21

20:                                               ; preds = %17
  store i32 3, ptr %4, align 4
  store i32 1, ptr %9, align 4
  br label %71

21:                                               ; preds = %17
  br label %70

22:                                               ; preds = %3
  store i32 3, ptr %4, align 4
  store i32 1, ptr %9, align 4
  br label %71

23:                                               ; preds = %3
  %24 = load i64, ptr %7, align 8, !tbaa !111
  %25 = icmp eq i64 %24, 1
  br i1 %25, label %26, label %27

26:                                               ; preds = %23
  store i32 2, ptr %4, align 4
  store i32 1, ptr %9, align 4
  br label %71

27:                                               ; preds = %23
  %28 = load i64, ptr %7, align 8, !tbaa !111
  %29 = icmp eq i64 %28, 2
  br i1 %29, label %30, label %31

30:                                               ; preds = %27
  store i32 3, ptr %4, align 4
  store i32 1, ptr %9, align 4
  br label %71

31:                                               ; preds = %27
  br label %32

32:                                               ; preds = %31
  br label %70

33:                                               ; preds = %3, %3
  %34 = load i64, ptr %7, align 8, !tbaa !111
  %35 = icmp eq i64 %34, 0
  br i1 %35, label %36, label %37

36:                                               ; preds = %33
  store i32 6, ptr %4, align 4
  store i32 1, ptr %9, align 4
  br label %71

37:                                               ; preds = %33
  br label %70

38:                                               ; preds = %3
  %39 = load i64, ptr %7, align 8, !tbaa !111
  %40 = icmp eq i64 %39, 1
  br i1 %40, label %41, label %42

41:                                               ; preds = %38
  store i32 5, ptr %4, align 4
  store i32 1, ptr %9, align 4
  br label %71

42:                                               ; preds = %38
  br label %70

43:                                               ; preds = %3
  %44 = load i64, ptr %7, align 8, !tbaa !111
  %45 = icmp eq i64 %44, 0
  br i1 %45, label %46, label %47

46:                                               ; preds = %43
  store i32 4, ptr %4, align 4
  store i32 1, ptr %9, align 4
  br label %71

47:                                               ; preds = %43
  %48 = load i64, ptr %7, align 8, !tbaa !111
  %49 = icmp eq i64 %48, 2
  br i1 %49, label %50, label %67

50:                                               ; preds = %47
  call void @llvm.lifetime.start.p0(i64 4, ptr %10) #3
  %51 = load ptr, ptr %6, align 8, !tbaa !95
  %52 = call noundef nonnull align 8 dereferenceable(24) ptr @_ZNK4cvc58internal9ProofNode12getArgumentsEv(ptr noundef nonnull align 8 dereferenceable(65) %51)
  %53 = call noundef nonnull align 8 dereferenceable(8) ptr @_ZNKSt6vectorIN4cvc58internal12NodeTemplateILb1EEESaIS3_EEixEm(ptr noundef nonnull align 8 dereferenceable(24) %52, i64 noundef 0) #3
  call void @_ZN4cvc58internal12NodeTemplateILb0EEC2ERKNS1_ILb1EEE(ptr noundef nonnull align 8 dereferenceable(8) %11, ptr noundef nonnull align 8 dereferenceable(8) %53)
  %54 = invoke noundef zeroext i1 @_ZN4cvc58internal10getTrustIdENS0_12NodeTemplateILb0EEERNS0_7TrustIdE(ptr noundef %11, ptr noundef nonnull align 4 dereferenceable(4) %10)
          to label %55 unwind label %59

55:                                               ; preds = %50
  call void @_ZN4cvc58internal12NodeTemplateILb0EED2Ev(ptr noundef nonnull align 8 dereferenceable(8) %11) #3
  %56 = load i32, ptr %10, align 4, !tbaa !152
  %57 = icmp eq i32 %56, 2
  br i1 %57, label %58, label %63

58:                                               ; preds = %55
  store i32 2, ptr %4, align 4
  store i32 1, ptr %9, align 4
  br label %64

59:                                               ; preds = %50
  %60 = landingpad { ptr, i32 }
          cleanup
  %61 = extractvalue { ptr, i32 } %60, 0
  store ptr %61, ptr %12, align 8
  %62 = extractvalue { ptr, i32 } %60, 1
  store i32 %62, ptr %13, align 4
  call void @_ZN4cvc58internal12NodeTemplateILb0EED2Ev(ptr noundef nonnull align 8 dereferenceable(8) %11) #3
  call void @llvm.lifetime.end.p0(i64 4, ptr %10) #3
  call void @llvm.lifetime.end.p0(i64 4, ptr %8) #3
  br label %73

63:                                               ; preds = %55
  store i32 0, ptr %9, align 4
  br label %64

64:                                               ; preds = %63, %58
  call void @llvm.lifetime.end.p0(i64 4, ptr %10) #3
  %65 = load i32, ptr %9, align 4
  switch i32 %65, label %71 [
    i32 0, label %66
  ]

66:                                               ; preds = %64
  br label %67

67:                                               ; preds = %66, %47
  br label %68

68:                                               ; preds = %67
  br label %70

69:                                               ; preds = %3
  br label %70

70:                                               ; preds = %69, %68, %42, %37, %32, %21
  store i32 0, ptr %4, align 4
  store i32 1, ptr %9, align 4
  br label %71

71:                                               ; preds = %70, %64, %46, %41, %36, %30, %26, %22, %20
  call void @llvm.lifetime.end.p0(i64 4, ptr %8) #3
  %72 = load i32, ptr %4, align 4
  ret i32 %72

73:                                               ; preds = %59
  %74 = load ptr, ptr %12, align 8
  %75 = load i32, ptr %13, align 4
  %76 = insertvalue { ptr, i32 } poison, ptr %74, 0
  %77 = insertvalue { ptr, i32 } %76, i32 %75, 1
  resume { ptr, i32 } %77
}