; Function Attrs: mustprogress uwtable
define hidden noundef range(i32 0, 7) i32 @_ZN4cvc58internal16ProofNodeToSExpr17getArgumentFormatEPKNS0_9ProofNodeEm(ptr nonnull readnone align 8 captures(none) %0, ptr noundef nonnull %1, i64 noundef %2) local_unnamed_addr #3 align 2 personality ptr @__gxx_personality_v0 {
  %4 = alloca i32, align 4
  %5 = alloca %"class.cvc5::internal::NodeTemplate.142", align 8
  %6 = tail call noundef i32 @_ZNK4cvc58internal9ProofNode7getRuleEv(ptr noundef nonnull align 8 dereferenceable(65) %1)
  switch i32 %6, label %20 [
    i32 2, label %7
    i32 3, label %7
    i32 7, label %7
    i32 8, label %7
    i32 10, label %7
    i32 9, label %21
    i32 16, label %8
    i32 12, label %9
    i32 13, label %9
    i32 95, label %11
    i32 15, label %13
  ]

7:                                                ; preds = %3, %3, %3, %3, %3
  %.not15 = icmp eq i64 %2, 0
  br i1 %.not15, label %20, label %21

8:                                                ; preds = %3
  %switch.selectcmp = icmp eq i64 %2, 2
  %switch.select = select i1 %switch.selectcmp, i32 3, i32 0
  %switch.selectcmp16 = icmp eq i64 %2, 1
  %switch.select17 = select i1 %switch.selectcmp16, i32 2, i32 %switch.select
  br label %21

9:                                                ; preds = %3, %3
  %10 = icmp eq i64 %2, 0
  br i1 %10, label %21, label %20

11:                                               ; preds = %3
  %12 = icmp eq i64 %2, 1
  br i1 %12, label %21, label %20

13:                                               ; preds = %3
  switch i64 %2, label %20 [
    i64 0, label %21
    i64 2, label %14
  ]

14:                                               ; preds = %13
  call void @llvm.lifetime.start.p0(i64 4, ptr nonnull %4) #21
  %15 = tail call noundef nonnull align 8 dereferenceable(24) ptr @_ZNK4cvc58internal9ProofNode12getArgumentsEv(ptr noundef nonnull align 8 dereferenceable(65) %1)
  %16 = load ptr, ptr %15, align 8, !tbaa !104
  %17 = load ptr, ptr %16, align 8, !tbaa !68
  store ptr %17, ptr %5, align 8, !tbaa !108
  %18 = call noundef zeroext i1 @_ZN4cvc58internal10getTrustIdENS0_12NodeTemplateILb0EEERNS0_7TrustIdE(ptr noundef nonnull %5, ptr noundef nonnull align 4 dereferenceable(4) %4)
  %19 = load i32, ptr %4, align 4, !tbaa !140
  %.not = icmp eq i32 %19, 2
  call void @llvm.lifetime.end.p0(i64 4, ptr nonnull %4) #21
  br i1 %.not, label %21, label %20

20:                                               ; preds = %13, %3, %14, %11, %9, %7
  br label %21

21:                                               ; preds = %8, %13, %11, %9, %3, %7, %14, %20
  %.0 = phi i32 [ 0, %20 ], [ 2, %14 ], [ 3, %7 ], [ 3, %3 ], [ 6, %9 ], [ 5, %11 ], [ 4, %13 ], [ %switch.select17, %8 ]
  ret i32 %.0
}